                              1 ;--------------------------------------------------------
                              2 ; File Created by SDCC : free open source ANSI-C Compiler
                              3 ; Version 3.9.0 #11195 (MINGW64)
                              4 ;--------------------------------------------------------
                              5 	.module hello
                              6 	.optsdcc -mz80
                              7 	
                              8 ;--------------------------------------------------------
                              9 ; Public variables in this module
                             10 ;--------------------------------------------------------
                             11 	.globl _main
                             12 	.globl _FT_errorHandler
                             13 	.globl _FT_SetName
                             14 	.globl _printf
                             15 	.globl _FcbOpen
                             16 	.globl _WaitKey
                             17 	.globl _Width
                             18 	.globl _SetColors
                             19 	.globl _Exit
                             20 	.globl _Screen
                             21 	.globl _Print
                             22 	.globl _file
                             23 ;--------------------------------------------------------
                             24 ; special function registers
                             25 ;--------------------------------------------------------
                             26 ;--------------------------------------------------------
                             27 ; ram data
                             28 ;--------------------------------------------------------
                             29 	.area _DATA
   0000                      30 _file::
   0000                      31 	.ds 37
                             32 ;--------------------------------------------------------
                             33 ; ram data
                             34 ;--------------------------------------------------------
                             35 	.area _INITIALIZED
                             36 ;--------------------------------------------------------
                             37 ; absolute external ram data
                             38 ;--------------------------------------------------------
                             39 	.area _DABS (ABS)
                             40 ;--------------------------------------------------------
                             41 ; global & static initialisations
                             42 ;--------------------------------------------------------
                             43 	.area _HOME
                             44 	.area _GSINIT
                             45 	.area _GSFINAL
                             46 	.area _GSINIT
                             47 ;--------------------------------------------------------
                             48 ; Home
                             49 ;--------------------------------------------------------
                             50 	.area _HOME
                             51 	.area _HOME
                             52 ;--------------------------------------------------------
                             53 ; code
                             54 ;--------------------------------------------------------
                             55 	.area _CODE
                             56 ;src\hello.c:15: void FT_SetName(FCB *p_fcb, const char *p_name) 
                             57 ;	---------------------------------
                             58 ; Function FT_SetName
                             59 ; ---------------------------------
   0000                      60 _FT_SetName::
   0000 CDr00r00      [17]   61 	call	___sdcc_enter_ix
   0003 F5            [11]   62 	push	af
   0004 F5            [11]   63 	push	af
   0005 3B            [ 6]   64 	dec	sp
                             65 ;src\hello.c:18: memset(p_fcb, 0, sizeof(FCB));
   0006 DD 6E 04      [19]   66 	ld	l, 4 (ix)
   0009 DD 66 05      [19]   67 	ld	h, 5 (ix)
   000C 06 25         [ 7]   68 	ld	b, #0x25
   000E                      69 00178$:
   000E 36 00         [10]   70 	ld	(hl), #0x00
   0010 23            [ 6]   71 	inc	hl
   0011 10 FB         [13]   72 	djnz	00178$
                             73 ;src\hello.c:19: for (i = 0; i < 11; i++) {
   0013 DD 5E 04      [19]   74 	ld	e, 4 (ix)
   0016 DD 56 05      [19]   75 	ld	d, 5 (ix)
   0019 21 01 00      [10]   76 	ld	hl, #0x0001
   001C 19            [11]   77 	add	hl, de
   001D DD 75 FC      [19]   78 	ld	-4 (ix), l
   0020 DD 74 FD      [19]   79 	ld	-3 (ix), h
   0023 0E 00         [ 7]   80 	ld	c, #0x00
   0025                      81 00106$:
                             82 ;src\hello.c:20: p_fcb->name[i] = ' ';
   0025 DD 6E FC      [19]   83 	ld	l, -4 (ix)
   0028 DD 66 FD      [19]   84 	ld	h, -3 (ix)
   002B 06 00         [ 7]   85 	ld	b, #0x00
   002D 09            [11]   86 	add	hl, bc
   002E 36 20         [10]   87 	ld	(hl), #0x20
                             88 ;src\hello.c:19: for (i = 0; i < 11; i++) {
   0030 0C            [ 4]   89 	inc	c
   0031 79            [ 4]   90 	ld	a, c
   0032 D6 0B         [ 7]   91 	sub	a, #0x0b
   0034 38 EF         [12]   92 	jr	C,00106$
                             93 ;src\hello.c:22: for (i = 0; (i < 8) && (p_name[i] != 0) && (p_name[i] != '.'); i++) {
   0036 DD 36 FE 00   [19]   94 	ld	-2 (ix), #0x00
   003A                      95 00111$:
   003A DD 7E 06      [19]   96 	ld	a, 6 (ix)
   003D DD 86 FE      [19]   97 	add	a, -2 (ix)
   0040 6F            [ 4]   98 	ld	l, a
   0041 DD 7E 07      [19]   99 	ld	a, 7 (ix)
   0044 CE 00         [ 7]  100 	adc	a, #0x00
   0046 67            [ 4]  101 	ld	h, a
   0047 DD 7E FE      [19]  102 	ld	a, -2 (ix)
   004A 3C            [ 4]  103 	inc	a
   004B DD 77 FF      [19]  104 	ld	-1 (ix), a
   004E 4E            [ 7]  105 	ld	c, (hl)
   004F 79            [ 4]  106 	ld	a, c
   0050 D6 2E         [ 7]  107 	sub	a, #0x2e
   0052 20 03         [12]  108 	jr	NZ, 00180$
   0054 3E 01         [ 7]  109 	ld	a, #0x01
   0056 20                  110 	.db	#0x20
   0057                     111 00180$:
   0057 AF            [ 4]  112 	xor	a, a
   0058                     113 00181$:
   0058 6F            [ 4]  114 	ld	l, a
   0059 DD 7E FE      [19]  115 	ld	a, -2 (ix)
   005C D6 08         [ 7]  116 	sub	a, #0x08
   005E 30 1E         [12]  117 	jr	NC,00102$
   0060 79            [ 4]  118 	ld	a, c
   0061 B7            [ 4]  119 	or	a, a
   0062 28 1A         [12]  120 	jr	Z,00102$
   0064 CB 45         [ 8]  121 	bit	0, l
   0066 20 16         [12]  122 	jr	NZ,00102$
                            123 ;src\hello.c:23: p_fcb->name[i] = p_name[i];
   0068 DD 7E FC      [19]  124 	ld	a, -4 (ix)
   006B DD 86 FE      [19]  125 	add	a, -2 (ix)
   006E 6F            [ 4]  126 	ld	l, a
   006F DD 7E FD      [19]  127 	ld	a, -3 (ix)
   0072 CE 00         [ 7]  128 	adc	a, #0x00
   0074 67            [ 4]  129 	ld	h, a
   0075 71            [ 7]  130 	ld	(hl), c
                            131 ;src\hello.c:22: for (i = 0; (i < 8) && (p_name[i] != 0) && (p_name[i] != '.'); i++) {
   0076 DD 7E FF      [19]  132 	ld	a, -1 (ix)
   0079 DD 77 FE      [19]  133 	ld	-2 (ix), a
   007C 18 BC         [12]  134 	jr	00111$
   007E                     135 00102$:
                            136 ;src\hello.c:25: if (p_name[i] == '.') {
   007E 7D            [ 4]  137 	ld	a, l
   007F B7            [ 4]  138 	or	a, a
   0080 28 4C         [12]  139 	jr	Z,00118$
                            140 ;src\hello.c:26: i++;
   0082 DD 7E FF      [19]  141 	ld	a, -1 (ix)
   0085 DD 77 FB      [19]  142 	ld	-5 (ix), a
                            143 ;src\hello.c:27: for (j = 0; (j < 3) && (p_name[i + j] != 0) && (p_name[i + j] != '.'); j++) {
   0088 21 09 00      [10]  144 	ld	hl, #0x0009
   008B 19            [11]  145 	add	hl, de
   008C EB            [ 4]  146 	ex	de, hl
   008D 0E 00         [ 7]  147 	ld	c, #0x00
   008F                     148 00116$:
   008F 79            [ 4]  149 	ld	a, c
   0090 D6 03         [ 7]  150 	sub	a, #0x03
   0092 30 3A         [12]  151 	jr	NC,00118$
   0094 DD 6E FB      [19]  152 	ld	l, -5 (ix)
   0097 26 00         [ 7]  153 	ld	h, #0x00
   0099 DD 71 FC      [19]  154 	ld	-4 (ix), c
   009C DD 36 FD 00   [19]  155 	ld	-3 (ix), #0x00
   00A0 7D            [ 4]  156 	ld	a, l
   00A1 DD 86 FC      [19]  157 	add	a, -4 (ix)
   00A4 DD 77 FE      [19]  158 	ld	-2 (ix), a
   00A7 7C            [ 4]  159 	ld	a, h
   00A8 DD 8E FD      [19]  160 	adc	a, -3 (ix)
   00AB DD 77 FF      [19]  161 	ld	-1 (ix), a
   00AE DD 7E 06      [19]  162 	ld	a, 6 (ix)
   00B1 DD 86 FE      [19]  163 	add	a, -2 (ix)
   00B4 6F            [ 4]  164 	ld	l, a
   00B5 DD 7E 07      [19]  165 	ld	a, 7 (ix)
   00B8 DD 8E FF      [19]  166 	adc	a, -1 (ix)
   00BB 67            [ 4]  167 	ld	h, a
   00BC 46            [ 7]  168 	ld	b, (hl)
   00BD 78            [ 4]  169 	ld	a, b
   00BE B7            [ 4]  170 	or	a, a
   00BF 28 0D         [12]  171 	jr	Z,00118$
   00C1 78            [ 4]  172 	ld	a, b
   00C2 D6 2E         [ 7]  173 	sub	a, #0x2e
   00C4 28 08         [12]  174 	jr	Z,00118$
                            175 ;src\hello.c:28: p_fcb->ext[j] = p_name[i + j];
   00C6 69            [ 4]  176 	ld	l, c
   00C7 26 00         [ 7]  177 	ld	h, #0x00
   00C9 19            [11]  178 	add	hl, de
   00CA 70            [ 7]  179 	ld	(hl), b
                            180 ;src\hello.c:27: for (j = 0; (j < 3) && (p_name[i + j] != 0) && (p_name[i + j] != '.'); j++) {
   00CB 0C            [ 4]  181 	inc	c
   00CC 18 C1         [12]  182 	jr	00116$
   00CE                     183 00118$:
                            184 ;src\hello.c:31: }
   00CE DD F9         [10]  185 	ld	sp, ix
   00D0 DD E1         [14]  186 	pop	ix
   00D2 C9            [10]  187 	ret
   00D3                     188 _Done_Version_tag:
   00D3 4D 61 64 65 20 77   189 	.ascii "Made with FUSION-C 1.3 R21010 (c)EBSOFT:2021"
        69 74 68 20 46 55
        53 49 4F 4E 2D 43
        20 31 2E 33 20 52
        32 31 30 31 30 20
        28 63 29 45 42 53
        4F 46 54 3A 32 30
        32 31
   00FF 00                  190 	.db 0x00
                            191 ;src\hello.c:33: void FT_errorHandler(char n, char *name) // Gère les erreurs
                            192 ;	---------------------------------
                            193 ; Function FT_errorHandler
                            194 ; ---------------------------------
   0100                     195 _FT_errorHandler::
                            196 ;src\hello.c:35: Screen(0);
   0100 AF            [ 4]  197 	xor	a, a
   0101 F5            [11]  198 	push	af
   0102 33            [ 6]  199 	inc	sp
   0103 CDr00r00      [17]  200 	call	_Screen
   0106 33            [ 6]  201 	inc	sp
                            202 ;src\hello.c:36: SetColors(15,6,6);
   0107 11 06 06      [10]  203 	ld	de, #0x0606
   010A D5            [11]  204 	push	de
   010B 3E 0F         [ 7]  205 	ld	a, #0x0f
   010D F5            [11]  206 	push	af
   010E 33            [ 6]  207 	inc	sp
   010F CDr00r00      [17]  208 	call	_SetColors
   0112 F1            [10]  209 	pop	af
   0113 33            [ 6]  210 	inc	sp
                            211 ;src\hello.c:37: switch (n)
   0114 FD 21 02 00   [14]  212 	ld	iy, #2
   0118 FD 39         [15]  213 	add	iy, sp
   011A FD 7E 00      [19]  214 	ld	a, 0 (iy)
   011D 3D            [ 4]  215 	dec	a
   011E 28 10         [12]  216 	jr	Z,00101$
   0120 FD 7E 00      [19]  217 	ld	a, 0 (iy)
   0123 D6 02         [ 7]  218 	sub	a, #0x02
   0125 28 1F         [12]  219 	jr	Z,00102$
   0127 FD 7E 00      [19]  220 	ld	a, 0 (iy)
   012A D6 03         [ 7]  221 	sub	a, #0x03
   012C 28 2E         [12]  222 	jr	Z,00103$
   012E 18 34         [12]  223 	jr	00104$
                            224 ;src\hello.c:39: case 1:
   0130                     225 00101$:
                            226 ;src\hello.c:40: Print("\n\rFAILED: fcb_open(): ");
   0130 21r69r01      [10]  227 	ld	hl, #___str_1
   0133 E5            [11]  228 	push	hl
   0134 CDr00r00      [17]  229 	call	_Print
   0137 F1            [10]  230 	pop	af
                            231 ;src\hello.c:41: Print(name);
   0138 21 03 00      [10]  232 	ld	hl, #3
   013B 39            [11]  233 	add	hl, sp
   013C 4E            [ 7]  234 	ld	c, (hl)
   013D 23            [ 6]  235 	inc	hl
   013E 46            [ 7]  236 	ld	b, (hl)
   013F C5            [11]  237 	push	bc
   0140 CDr00r00      [17]  238 	call	_Print
   0143 F1            [10]  239 	pop	af
                            240 ;src\hello.c:42: break;
   0144 18 1E         [12]  241 	jr	00104$
                            242 ;src\hello.c:44: case 2:
   0146                     243 00102$:
                            244 ;src\hello.c:45: Print("\n\rFAILED: fcb_close():");
   0146 21r80r01      [10]  245 	ld	hl, #___str_2
   0149 E5            [11]  246 	push	hl
   014A CDr00r00      [17]  247 	call	_Print
   014D F1            [10]  248 	pop	af
                            249 ;src\hello.c:46: Print(name);
   014E 21 03 00      [10]  250 	ld	hl, #3
   0151 39            [11]  251 	add	hl, sp
   0152 4E            [ 7]  252 	ld	c, (hl)
   0153 23            [ 6]  253 	inc	hl
   0154 46            [ 7]  254 	ld	b, (hl)
   0155 C5            [11]  255 	push	bc
   0156 CDr00r00      [17]  256 	call	_Print
   0159 F1            [10]  257 	pop	af
                            258 ;src\hello.c:47: break;  
   015A 18 08         [12]  259 	jr	00104$
                            260 ;src\hello.c:49: case 3:
   015C                     261 00103$:
                            262 ;src\hello.c:50: Print("\n\rStop Kidding, run me on MSX2 !");
   015C 21r97r01      [10]  263 	ld	hl, #___str_3
   015F E5            [11]  264 	push	hl
   0160 CDr00r00      [17]  265 	call	_Print
   0163 F1            [10]  266 	pop	af
                            267 ;src\hello.c:52: }
   0164                     268 00104$:
                            269 ;src\hello.c:53: Exit(0);
   0164 2E 00         [ 7]  270 	ld	l, #0x00
                            271 ;src\hello.c:54: }
   0166 C3r00r00      [10]  272 	jp  _Exit
   0169                     273 ___str_1:
   0169 0A                  274 	.db 0x0a
   016A 0D                  275 	.db 0x0d
   016B 46 41 49 4C 45 44   276 	.ascii "FAILED: fcb_open(): "
        3A 20 66 63 62 5F
        6F 70 65 6E 28 29
        3A 20
   017F 00                  277 	.db 0x00
   0180                     278 ___str_2:
   0180 0A                  279 	.db 0x0a
   0181 0D                  280 	.db 0x0d
   0182 46 41 49 4C 45 44   281 	.ascii "FAILED: fcb_close():"
        3A 20 66 63 62 5F
        63 6C 6F 73 65 28
        29 3A
   0196 00                  282 	.db 0x00
   0197                     283 ___str_3:
   0197 0A                  284 	.db 0x0a
   0198 0D                  285 	.db 0x0d
   0199 53 74 6F 70 20 4B   286 	.ascii "Stop Kidding, run me on MSX2 !"
        69 64 64 69 6E 67
        2C 20 72 75 6E 20
        6D 65 20 6F 6E 20
        4D 53 58 32 20 21
   01B7 00                  287 	.db 0x00
                            288 ;src\hello.c:56: void main (void)
                            289 ;	---------------------------------
                            290 ; Function main
                            291 ; ---------------------------------
   01B8                     292 _main::
   01B8 CDr00r00      [17]  293 	call	___sdcc_enter_ix
   01BB 21 F5 FF      [10]  294 	ld	hl, #-11
   01BE 39            [11]  295 	add	hl, sp
   01BF F9            [ 6]  296 	ld	sp, hl
                            297 ;src\hello.c:58: Screen(0);
   01C0 AF            [ 4]  298 	xor	a, a
   01C1 F5            [11]  299 	push	af
   01C2 33            [ 6]  300 	inc	sp
   01C3 CDr00r00      [17]  301 	call	_Screen
   01C6 33            [ 6]  302 	inc	sp
                            303 ;src\hello.c:59: Width(40);
   01C7 3E 28         [ 7]  304 	ld	a, #0x28
   01C9 F5            [11]  305 	push	af
   01CA 33            [ 6]  306 	inc	sp
   01CB CDr00r00      [17]  307 	call	_Width
   01CE 33            [ 6]  308 	inc	sp
                            309 ;src\hello.c:60: Print("Hello ! \n\n");
   01CF 21r6Cr02      [10]  310 	ld	hl, #___str_5
   01D2 E5            [11]  311 	push	hl
   01D3 CDr00r00      [17]  312 	call	_Print
                            313 ;src\hello.c:61: Print("Your are using FUSION-C \n\rversion:");
   01D6 21r77r02      [10]  314 	ld	hl, #___str_6
   01D9 E3            [19]  315 	ex	(sp),hl
   01DA CDr00r00      [17]  316 	call	_Print
                            317 ;src\hello.c:63: Print("  Rev.");
   01DD 21r9Ar02      [10]  318 	ld	hl, #___str_7
   01E0 E3            [19]  319 	ex	(sp),hl
   01E1 CDr00r00      [17]  320 	call	_Print
   01E4 F1            [10]  321 	pop	af
                            322 ;src\hello.c:66: char file_name[] = "nextor.rom";
   01E5 21 00 00      [10]  323 	ld	hl, #0
   01E8 39            [11]  324 	add	hl, sp
   01E9 EB            [ 4]  325 	ex	de, hl
   01EA 3E 6E         [ 7]  326 	ld	a, #0x6e
   01EC 12            [ 7]  327 	ld	(de), a
   01ED 6B            [ 4]  328 	ld	l, e
   01EE 62            [ 4]  329 	ld	h, d
   01EF 23            [ 6]  330 	inc	hl
   01F0 36 65         [10]  331 	ld	(hl), #0x65
   01F2 6B            [ 4]  332 	ld	l, e
   01F3 62            [ 4]  333 	ld	h, d
   01F4 23            [ 6]  334 	inc	hl
   01F5 23            [ 6]  335 	inc	hl
   01F6 36 78         [10]  336 	ld	(hl), #0x78
   01F8 6B            [ 4]  337 	ld	l, e
   01F9 62            [ 4]  338 	ld	h, d
   01FA 23            [ 6]  339 	inc	hl
   01FB 23            [ 6]  340 	inc	hl
   01FC 23            [ 6]  341 	inc	hl
   01FD 36 74         [10]  342 	ld	(hl), #0x74
   01FF 21 04 00      [10]  343 	ld	hl, #0x0004
   0202 19            [11]  344 	add	hl, de
   0203 36 6F         [10]  345 	ld	(hl), #0x6f
   0205 21 05 00      [10]  346 	ld	hl, #0x0005
   0208 19            [11]  347 	add	hl, de
   0209 36 72         [10]  348 	ld	(hl), #0x72
   020B 21 06 00      [10]  349 	ld	hl, #0x0006
   020E 19            [11]  350 	add	hl, de
   020F 36 2E         [10]  351 	ld	(hl), #0x2e
   0211 21 07 00      [10]  352 	ld	hl, #0x0007
   0214 19            [11]  353 	add	hl, de
   0215 36 72         [10]  354 	ld	(hl), #0x72
   0217 21 08 00      [10]  355 	ld	hl, #0x0008
   021A 19            [11]  356 	add	hl, de
   021B 36 6F         [10]  357 	ld	(hl), #0x6f
   021D 21 09 00      [10]  358 	ld	hl, #0x0009
   0220 19            [11]  359 	add	hl, de
   0221 36 6D         [10]  360 	ld	(hl), #0x6d
   0223 21 0A 00      [10]  361 	ld	hl, #0x000a
   0226 19            [11]  362 	add	hl, de
   0227 36 00         [10]  363 	ld	(hl), #0x00
                            364 ;src\hello.c:68: FT_SetName( &file, file_name );
   0229 4B            [ 4]  365 	ld	c, e
   022A 42            [ 4]  366 	ld	b, d
   022B D5            [11]  367 	push	de
   022C C5            [11]  368 	push	bc
   022D 21r00r00      [10]  369 	ld	hl, #_file
   0230 E5            [11]  370 	push	hl
   0231 CDr00r00      [17]  371 	call	_FT_SetName
   0234 F1            [10]  372 	pop	af
   0235 21r00r00      [10]  373 	ld	hl, #_file
   0238 E3            [19]  374 	ex	(sp),hl
   0239 CDr00r00      [17]  375 	call	_FcbOpen
   023C F1            [10]  376 	pop	af
   023D 7D            [ 4]  377 	ld	a, l
   023E D1            [10]  378 	pop	de
   023F B7            [ 4]  379 	or	a, a
   0240 28 0A         [12]  380 	jr	Z,00102$
                            381 ;src\hello.c:71: FT_errorHandler(1, file_name);
   0242 D5            [11]  382 	push	de
   0243 3E 01         [ 7]  383 	ld	a, #0x01
   0245 F5            [11]  384 	push	af
   0246 33            [ 6]  385 	inc	sp
   0247 CDr00r01      [17]  386 	call	_FT_errorHandler
   024A F1            [10]  387 	pop	af
   024B 33            [ 6]  388 	inc	sp
   024C                     389 00102$:
                            390 ;src\hello.c:74: printf("\n\r\n\rSize: %lu\n\r",file.file_size);
   024C ED 5Br10r00   [20]  391 	ld	de, (#_file + 16)
   0250 2Ar12r00      [16]  392 	ld	hl, (#_file + 18)
   0253 01rA1r02      [10]  393 	ld	bc, #___str_8+0
   0256 E5            [11]  394 	push	hl
   0257 D5            [11]  395 	push	de
   0258 C5            [11]  396 	push	bc
   0259 CDr00r00      [17]  397 	call	_printf
   025C F1            [10]  398 	pop	af
   025D F1            [10]  399 	pop	af
   025E F1            [10]  400 	pop	af
                            401 ;src\hello.c:75: WaitKey();
   025F CDr00r00      [17]  402 	call	_WaitKey
                            403 ;src\hello.c:76: Exit(0);
   0262 2E 00         [ 7]  404 	ld	l, #0x00
   0264 CDr00r00      [17]  405 	call	_Exit
                            406 ;src\hello.c:78: }
   0267 DD F9         [10]  407 	ld	sp, ix
   0269 DD E1         [14]  408 	pop	ix
   026B C9            [10]  409 	ret
   026C                     410 ___str_5:
   026C 48 65 6C 6C 6F 20   411 	.ascii "Hello ! "
        21 20
   0274 0A                  412 	.db 0x0a
   0275 0A                  413 	.db 0x0a
   0276 00                  414 	.db 0x00
   0277                     415 ___str_6:
   0277 59 6F 75 72 20 61   416 	.ascii "Your are using FUSION-C "
        72 65 20 75 73 69
        6E 67 20 46 55 53
        49 4F 4E 2D 43 20
   028F 0A                  417 	.db 0x0a
   0290 0D                  418 	.db 0x0d
   0291 76 65 72 73 69 6F   419 	.ascii "version:"
        6E 3A
   0299 00                  420 	.db 0x00
   029A                     421 ___str_7:
   029A 20 20 52 65 76 2E   422 	.ascii "  Rev."
   02A0 00                  423 	.db 0x00
   02A1                     424 ___str_8:
   02A1 0A                  425 	.db 0x0a
   02A2 0D                  426 	.db 0x0d
   02A3 0A                  427 	.db 0x0a
   02A4 0D                  428 	.db 0x0d
   02A5 53 69 7A 65 3A 20   429 	.ascii "Size: %lu"
        25 6C 75
   02AE 0A                  430 	.db 0x0a
   02AF 0D                  431 	.db 0x0d
   02B0 00                  432 	.db 0x00
                            433 	.area _CODE
                            434 	.area _INITIALIZER
                            435 	.area _CABS (ABS)
